target datalayout = "e-m:e-p270:32:32-p271:32:32-p272:64:64-i64:64-i128:128-f80:128-n8:16:32:64-S128"
target triple = "x86_64-pc-linux-gnu"

%struct.sqlite3_vfs = type { i32, i32, i32, ptr, ptr, ptr, ptr, ptr, ptr, ptr, ptr, ptr, ptr, ptr, ptr, ptr, ptr, ptr, ptr, ptr, ptr, ptr }
%struct.vfstrace_info = type { ptr, ptr, i32, i8, ptr, ptr, ptr }

@.str.534 = private unnamed_addr constant [18 x i8] c"%s.xCurrentTime()\00", align 1
@.str.535 = private unnamed_addr constant [11 x i8] c" -> %.17g\0A\00", align 1

; Function Attrs: nounwind uwtable
define internal void @vfstraceOnOff(ptr noundef %0, i32 noundef %1) #0 {
  %3 = alloca ptr, align 8
  %4 = alloca i32, align 4
  store ptr %0, ptr %3, align 8, !tbaa !240
  store i32 %1, ptr %4, align 4, !tbaa !3
  %5 = load ptr, ptr %3, align 8, !tbaa !240
  %6 = getelementptr inbounds nuw %struct.vfstrace_info, ptr %5, i32 0, i32 2
  %7 = load i32, ptr %6, align 8, !tbaa !266
  %8 = load i32, ptr %4, align 4, !tbaa !3
  %9 = and i32 %7, %8
  %10 = icmp ne i32 %9, 0
  %11 = zext i1 %10 to i32
  %12 = trunc i32 %11 to i8
  %13 = load ptr, ptr %3, align 8, !tbaa !240
  %14 = getelementptr inbounds nuw %struct.vfstrace_info, ptr %13, i32 0, i32 3
  store i8 %12, ptr %14, align 4, !tbaa !267
  ret void
}

; Function Attrs: nounwind uwtable
define internal i32 @vfstraceCurrentTime(ptr noundef %0, ptr noundef %1) #0 {
  %3 = alloca ptr, align 8
  %4 = alloca ptr, align 8
  %5 = alloca ptr, align 8
  %6 = alloca ptr, align 8
  %7 = alloca i32, align 4
  store ptr %0, ptr %3, align 8, !tbaa !107
  store ptr %1, ptr %4, align 8, !tbaa !94
  call void @llvm.lifetime.start.p0(i64 8, ptr %5) #14
  %8 = load ptr, ptr %3, align 8, !tbaa !107
  %9 = getelementptr inbounds nuw %struct.sqlite3_vfs, ptr %8, i32 0, i32 5
  %10 = load ptr, ptr %9, align 8, !tbaa !111
  store ptr %10, ptr %5, align 8, !tbaa !240
  call void @llvm.lifetime.start.p0(i64 8, ptr %6) #14
  %11 = load ptr, ptr %5, align 8, !tbaa !240
  %12 = getelementptr inbounds nuw %struct.vfstrace_info, ptr %11, i32 0, i32 0
  %13 = load ptr, ptr %12, align 8, !tbaa !260
  store ptr %13, ptr %6, align 8, !tbaa !107
  call void @llvm.lifetime.start.p0(i64 4, ptr %7) #14
  %14 = load ptr, ptr %5, align 8, !tbaa !240
  call void @vfstraceOnOff(ptr noundef %14, i32 noundef 67108864)
  %15 = load ptr, ptr %5, align 8, !tbaa !240
  %16 = load ptr, ptr %5, align 8, !tbaa !240
  %17 = getelementptr inbounds nuw %struct.vfstrace_info, ptr %16, i32 0, i32 5
  %18 = load ptr, ptr %17, align 8, !tbaa !264
  call void (ptr, ptr, ...) @vfstrace_printf(ptr noundef %15, ptr noundef @.str.534, ptr noundef %18)
  %19 = load ptr, ptr %6, align 8, !tbaa !107
  %20 = getelementptr inbounds nuw %struct.sqlite3_vfs, ptr %19, i32 0, i32 16
  %21 = load ptr, ptr %20, align 8, !tbaa !254
  %22 = load ptr, ptr %6, align 8, !tbaa !107
  %23 = load ptr, ptr %4, align 8, !tbaa !94
  %24 = call i32 %21(ptr noundef %22, ptr noundef %23)
  store i32 %24, ptr %7, align 4, !tbaa !3
  %25 = load ptr, ptr %5, align 8, !tbaa !240
  %26 = load ptr, ptr %4, align 8, !tbaa !94
  %27 = load double, ptr %26, align 8, !tbaa !47
  call void (ptr, ptr, ...) @vfstrace_printf(ptr noundef %25, ptr noundef @.str.535, double noundef %27)
  %28 = load i32, ptr %7, align 4, !tbaa !3
  call void @llvm.lifetime.end.p0(i64 4, ptr %7) #14
  call void @llvm.lifetime.end.p0(i64 8, ptr %6) #14
  call void @llvm.lifetime.end.p0(i64 8, ptr %5) #14
  ret i32 %28
}